target datalayout = "e-m:e-p270:32:32-p271:32:32-p272:64:64-i64:64-i128:128-f80:128-n8:16:32:64-S128"
target triple = "x86_64-unknown-linux-gnu"

@.str.1 = private unnamed_addr constant [27 x i8] c"../qemu/block/graph-lock.c\00", align 1
@.str.2 = private unnamed_addr constant [22 x i8] c"qemu_in_main_thread()\00", align 1
@has_writer = internal global i32 0, align 4
@.str.6 = private unnamed_addr constant [26 x i8] c"qatomic_read(&has_writer)\00", align 1
@__PRETTY_FUNCTION__.assert_bdrv_graph_writable = private unnamed_addr constant [38 x i8] c"void assert_bdrv_graph_writable(void)\00", align 1
@__func__.assert_bdrv_graph_writable = private unnamed_addr constant [27 x i8] c"assert_bdrv_graph_writable\00", align 1

; Function Attrs: nounwind sspstrong uwtable
define dso_local void @assert_bdrv_graph_writable() #0 {
entry:
  %tmp = alloca i32, align 4
  %atomic-temp = alloca i32, align 4
  %call = call zeroext i1 @qemu_in_main_thread()
  br i1 %call, label %if.then, label %if.else

if.then:                                          ; preds = %entry
  br label %if.end

if.else:                                          ; preds = %entry
  call void @__assert_fail(ptr noundef @.str.2, ptr noundef @.str.1, i32 noundef 319, ptr noundef @__PRETTY_FUNCTION__.assert_bdrv_graph_writable) #6
  unreachable

if.end:                                           ; preds = %if.then
  br label %while.cond

while.cond:                                       ; preds = %do.end, %if.end
  br i1 false, label %while.body, label %while.end

while.body:                                       ; preds = %while.cond
  br label %do.body

do.body:                                          ; preds = %while.body
  call void @g_assertion_message_expr(ptr noundef null, ptr noundef @.str.1, i32 noundef 320, ptr noundef @__func__.assert_bdrv_graph_writable, ptr noundef null) #7
  unreachable

do.end:                                           ; No predecessors!
  br label %while.cond

while.end:                                        ; preds = %while.cond
  %0 = load atomic i32, ptr @has_writer monotonic, align 4
  store i32 %0, ptr %atomic-temp, align 4
  %1 = load i32, ptr %atomic-temp, align 4
  store i32 %1, ptr %tmp, align 4
  %2 = load i32, ptr %tmp, align 4
  %tobool = icmp ne i32 %2, 0
  br i1 %tobool, label %if.then1, label %if.else2

if.then1:                                         ; preds = %while.end
  br label %if.end3

if.else2:                                         ; preds = %while.end
  call void @__assert_fail(ptr noundef @.str.6, ptr noundef @.str.1, i32 noundef 320, ptr noundef @__PRETTY_FUNCTION__.assert_bdrv_graph_writable) #6
  unreachable

if.end3:                                          ; preds = %if.then1
  ret void
}