; Function Attrs: nounwind sspstrong uwtable
define dso_local void @assert_bdrv_graph_writable() local_unnamed_addr #0 {
entry:
  %call = tail call zeroext i1 @qemu_in_main_thread() #5
  br i1 %call, label %while.end, label %if.else

if.else:                                          ; preds = %entry
  tail call void @__assert_fail(ptr noundef nonnull @.str.2, ptr noundef nonnull @.str.1, i32 noundef 319, ptr noundef nonnull @__PRETTY_FUNCTION__.assert_bdrv_graph_writable) #7
  unreachable

while.end:                                        ; preds = %entry
  %0 = load atomic i32, ptr @has_writer monotonic, align 4
  %tobool.not = icmp eq i32 %0, 0
  br i1 %tobool.not, label %if.else2, label %if.end3

if.else2:                                         ; preds = %while.end
  tail call void @__assert_fail(ptr noundef nonnull @.str.6, ptr noundef nonnull @.str.1, i32 noundef 320, ptr noundef nonnull @__PRETTY_FUNCTION__.assert_bdrv_graph_writable) #7
  unreachable

if.end3:                                          ; preds = %while.end
  ret void
}